target datalayout = "e-m:e-p270:32:32-p271:32:32-p272:64:64-i64:64-i128:128-f80:128-n8:16:32:64-S128"
target triple = "x86_64-unknown-linux-gnu"

%struct.E1000Info = type { ptr, i16, i8, i16 }
%struct.VMStateDescription = type { ptr, i8, i8, i32, i32, i32, ptr, ptr, ptr, ptr, ptr, ptr, ptr, ptr }
%struct.PCIDeviceClass = type { %struct.DeviceClass, ptr, ptr, ptr, ptr, i16, i16, i8, i16, i16, i16, ptr }
%struct.DeviceClass = type { %struct.ObjectClass, [1 x i64], ptr, ptr, ptr, i8, i8, ptr, ptr, ptr, ptr, ptr }
%struct.ObjectClass = type { ptr, ptr, [4 x ptr], [4 x ptr], ptr, ptr }
%struct.E1000BaseClass = type { %struct.PCIDeviceClass, i16 }
%struct.ResettableClass = type { %struct.InterfaceClass, %struct.ResettablePhases, ptr, ptr, ptr }
%struct.InterfaceClass = type { %struct.ObjectClass, ptr, ptr }
%struct.ResettablePhases = type { ptr, ptr, ptr }

@.str = private unnamed_addr constant [11 x i8] c"e1000-base\00", align 1
@.str.1 = private unnamed_addr constant [11 x i8] c"pci-device\00", align 1
@.str.5 = private unnamed_addr constant [23 x i8] c"../qemu/hw/net/e1000.c\00", align 1
@.str.6 = private unnamed_addr constant [7 x i8] c"device\00", align 1
@.str.7 = private unnamed_addr constant [101 x i8] c"/home/dtcxzyw/WorkSpace/Projects/compilers/llvm-opt-benchmark/bench/qemu/qemu/include/hw/qdev-core.h\00", align 1
@.str.11 = private unnamed_addr constant [14 x i8] c"efi-e1000.rom\00", align 1
@.str.12 = private unnamed_addr constant [23 x i8] c"Intel Gigabit Ethernet\00", align 1
@vmstate_e1000 = internal constant %struct.VMStateDescription { ptr @.str.8, i8 0, i8 0, i32 2, i32 1, i32 0, ptr null, ptr @e1000_post_load, ptr @e1000_pre_save, ptr null, ptr null, ptr null, ptr @.compoundliteral.87, ptr @.compoundliteral.88 }, align 8
@__func__.DEVICE_CLASS = private unnamed_addr constant [13 x i8] c"DEVICE_CLASS\00", align 1
@.str.13 = private unnamed_addr constant [11 x i8] c"resettable\00", align 1
@.str.14 = private unnamed_addr constant [102 x i8] c"/home/dtcxzyw/WorkSpace/Projects/compilers/llvm-opt-benchmark/bench/qemu/qemu/include/hw/resettable.h\00", align 1
@__func__.RESETTABLE_CLASS = private unnamed_addr constant [17 x i8] c"RESETTABLE_CLASS\00", align 1
@.str.15 = private unnamed_addr constant [106 x i8] c"/home/dtcxzyw/WorkSpace/Projects/compilers/llvm-opt-benchmark/bench/qemu/qemu/include/hw/pci/pci_device.h\00", align 1
@__func__.PCI_DEVICE_CLASS = private unnamed_addr constant [17 x i8] c"PCI_DEVICE_CLASS\00", align 1
@__func__.E1000_CLASS = private unnamed_addr constant [12 x i8] c"E1000_CLASS\00", align 1

; Function Attrs: nounwind sspstrong uwtable
define internal void @set_bit(i64 noundef %nr, ptr noundef %addr) #0 {
entry:
  %nr.addr = alloca i64, align 8
  %addr.addr = alloca ptr, align 8
  %mask = alloca i64, align 8
  %p = alloca ptr, align 8
  store i64 %nr, ptr %nr.addr, align 8
  store ptr %addr, ptr %addr.addr, align 8
  %0 = load i64, ptr %nr.addr, align 8
  %rem = urem i64 %0, 64
  %shl = shl i64 1, %rem
  store i64 %shl, ptr %mask, align 8
  %1 = load ptr, ptr %addr.addr, align 8
  %2 = load i64, ptr %nr.addr, align 8
  %div = udiv i64 %2, 64
  %add.ptr = getelementptr i64, ptr %1, i64 %div
  store ptr %add.ptr, ptr %p, align 8
  %3 = load i64, ptr %mask, align 8
  %4 = load ptr, ptr %p, align 8
  %5 = load i64, ptr %4, align 8
  %or = or i64 %5, %3
  store i64 %or, ptr %4, align 8
  ret void
}

; Function Attrs: nounwind sspstrong uwtable
define internal ptr @E1000_CLASS(ptr noundef %klass) #0 {
entry:
  %klass.addr = alloca ptr, align 8
  store ptr %klass, ptr %klass.addr, align 8
  %0 = load ptr, ptr %klass.addr, align 8
  %call = call ptr @object_class_dynamic_cast_assert(ptr noundef %0, ptr noundef @.str, ptr noundef @.str.5, i32 noundef 155, ptr noundef @__func__.E1000_CLASS)
  ret ptr %call
}

; Function Attrs: nounwind sspstrong uwtable
define internal ptr @PCI_DEVICE_CLASS(ptr noundef %klass) #0 {
entry:
  %klass.addr = alloca ptr, align 8
  store ptr %klass, ptr %klass.addr, align 8
  %0 = load ptr, ptr %klass.addr, align 8
  %call = call ptr @object_class_dynamic_cast_assert(ptr noundef %0, ptr noundef @.str.1, ptr noundef @.str.15, i32 noundef 10, ptr noundef @__func__.PCI_DEVICE_CLASS)
  ret ptr %call
}

; Function Attrs: nounwind sspstrong uwtable
define internal ptr @RESETTABLE_CLASS(ptr noundef %klass) #0 {
entry:
  %klass.addr = alloca ptr, align 8
  store ptr %klass, ptr %klass.addr, align 8
  %0 = load ptr, ptr %klass.addr, align 8
  %call = call ptr @object_class_dynamic_cast_assert(ptr noundef %0, ptr noundef @.str.13, ptr noundef @.str.14, i32 noundef 22, ptr noundef @__func__.RESETTABLE_CLASS)
  ret ptr %call
}

; Function Attrs: nounwind sspstrong uwtable
define internal ptr @DEVICE_CLASS(ptr noundef %klass) #0 {
entry:
  %klass.addr = alloca ptr, align 8
  store ptr %klass, ptr %klass.addr, align 8
  %0 = load ptr, ptr %klass.addr, align 8
  %call = call ptr @object_class_dynamic_cast_assert(ptr noundef %0, ptr noundef @.str.6, ptr noundef @.str.7, i32 noundef 77, ptr noundef @__func__.DEVICE_CLASS)
  ret ptr %call
}

; Function Attrs: nounwind sspstrong uwtable
define internal void @e1000_class_init(ptr noundef %klass, ptr noundef %data) #0 {
entry:
  %klass.addr = alloca ptr, align 8
  %data.addr = alloca ptr, align 8
  %dc = alloca ptr, align 8
  %rc = alloca ptr, align 8
  %k = alloca ptr, align 8
  %e = alloca ptr, align 8
  %info = alloca ptr, align 8
  store ptr %klass, ptr %klass.addr, align 8
  store ptr %data, ptr %data.addr, align 8
  %0 = load ptr, ptr %klass.addr, align 8
  %call = call ptr @DEVICE_CLASS(ptr noundef %0)
  store ptr %call, ptr %dc, align 8
  %1 = load ptr, ptr %klass.addr, align 8
  %call1 = call ptr @RESETTABLE_CLASS(ptr noundef %1)
  store ptr %call1, ptr %rc, align 8
  %2 = load ptr, ptr %klass.addr, align 8
  %call2 = call ptr @PCI_DEVICE_CLASS(ptr noundef %2)
  store ptr %call2, ptr %k, align 8
  %3 = load ptr, ptr %klass.addr, align 8
  %call3 = call ptr @E1000_CLASS(ptr noundef %3)
  store ptr %call3, ptr %e, align 8
  %4 = load ptr, ptr %data.addr, align 8
  store ptr %4, ptr %info, align 8
  %5 = load ptr, ptr %k, align 8
  %realize = getelementptr inbounds %struct.PCIDeviceClass, ptr %5, i32 0, i32 1
  store ptr @pci_e1000_realize, ptr %realize, align 8
  %6 = load ptr, ptr %k, align 8
  %exit = getelementptr inbounds %struct.PCIDeviceClass, ptr %6, i32 0, i32 2
  store ptr @pci_e1000_uninit, ptr %exit, align 8
  %7 = load ptr, ptr %k, align 8
  %romfile = getelementptr inbounds %struct.PCIDeviceClass, ptr %7, i32 0, i32 11
  store ptr @.str.11, ptr %romfile, align 8
  %8 = load ptr, ptr %k, align 8
  %vendor_id = getelementptr inbounds %struct.PCIDeviceClass, ptr %8, i32 0, i32 5
  store i16 -32634, ptr %vendor_id, align 8
  %9 = load ptr, ptr %info, align 8
  %device_id = getelementptr inbounds %struct.E1000Info, ptr %9, i32 0, i32 1
  %10 = load i16, ptr %device_id, align 8
  %11 = load ptr, ptr %k, align 8
  %device_id4 = getelementptr inbounds %struct.PCIDeviceClass, ptr %11, i32 0, i32 6
  store i16 %10, ptr %device_id4, align 2
  %12 = load ptr, ptr %info, align 8
  %revision = getelementptr inbounds %struct.E1000Info, ptr %12, i32 0, i32 2
  %13 = load i8, ptr %revision, align 2
  %14 = load ptr, ptr %k, align 8
  %revision5 = getelementptr inbounds %struct.PCIDeviceClass, ptr %14, i32 0, i32 7
  store i8 %13, ptr %revision5, align 4
  %15 = load ptr, ptr %info, align 8
  %phy_id2 = getelementptr inbounds %struct.E1000Info, ptr %15, i32 0, i32 3
  %16 = load i16, ptr %phy_id2, align 4
  %17 = load ptr, ptr %e, align 8
  %phy_id26 = getelementptr inbounds %struct.E1000BaseClass, ptr %17, i32 0, i32 1
  store i16 %16, ptr %phy_id26, align 8
  %18 = load ptr, ptr %k, align 8
  %class_id = getelementptr inbounds %struct.PCIDeviceClass, ptr %18, i32 0, i32 8
  store i16 512, ptr %class_id, align 2
  %19 = load ptr, ptr %rc, align 8
  %phases = getelementptr inbounds %struct.ResettableClass, ptr %19, i32 0, i32 1
  %hold = getelementptr inbounds %struct.ResettablePhases, ptr %phases, i32 0, i32 1
  store ptr @e1000_reset_hold, ptr %hold, align 8
  %20 = load ptr, ptr %dc, align 8
  %categories = getelementptr inbounds %struct.DeviceClass, ptr %20, i32 0, i32 1
  %arraydecay = getelementptr inbounds [1 x i64], ptr %categories, i64 0, i64 0
  call void @set_bit(i64 noundef 3, ptr noundef %arraydecay)
  %21 = load ptr, ptr %dc, align 8
  %desc = getelementptr inbounds %struct.DeviceClass, ptr %21, i32 0, i32 3
  store ptr @.str.12, ptr %desc, align 8
  %22 = load ptr, ptr %dc, align 8
  %vmsd = getelementptr inbounds %struct.DeviceClass, ptr %22, i32 0, i32 10
  store ptr @vmstate_e1000, ptr %vmsd, align 8
  %23 = load ptr, ptr %dc, align 8
  call void @device_class_set_props(ptr noundef %23, ptr noundef @e1000_properties)
  ret void
}