; Function Attrs: nounwind sspstrong uwtable
define internal void @e1000_class_init(ptr noundef %klass, ptr noundef readonly captures(none) %data) #0 {
entry:
  %call.i = tail call ptr @object_class_dynamic_cast_assert(ptr noundef %klass, ptr noundef nonnull @.str.6, ptr noundef nonnull @.str.7, i32 noundef 77, ptr noundef nonnull @__func__.DEVICE_CLASS) #13
  %call.i15 = tail call ptr @object_class_dynamic_cast_assert(ptr noundef %klass, ptr noundef nonnull @.str.13, ptr noundef nonnull @.str.14, i32 noundef 22, ptr noundef nonnull @__func__.RESETTABLE_CLASS) #13
  %call.i16 = tail call ptr @object_class_dynamic_cast_assert(ptr noundef %klass, ptr noundef nonnull @.str.1, ptr noundef nonnull @.str.15, i32 noundef 10, ptr noundef nonnull @__func__.PCI_DEVICE_CLASS) #13
  %call.i17 = tail call ptr @object_class_dynamic_cast_assert(ptr noundef %klass, ptr noundef nonnull @.str, ptr noundef nonnull @.str.5, i32 noundef 155, ptr noundef nonnull @__func__.E1000_CLASS) #13
  %realize = getelementptr inbounds nuw i8, ptr %call.i16, i64 176
  store ptr @pci_e1000_realize, ptr %realize, align 8
  %exit = getelementptr inbounds nuw i8, ptr %call.i16, i64 184
  store ptr @pci_e1000_uninit, ptr %exit, align 8
  %romfile = getelementptr inbounds nuw i8, ptr %call.i16, i64 224
  store ptr @.str.11, ptr %romfile, align 8
  %vendor_id = getelementptr inbounds nuw i8, ptr %call.i16, i64 208
  store i16 -32634, ptr %vendor_id, align 8
  %device_id = getelementptr inbounds nuw i8, ptr %data, i64 8
  %0 = load i16, ptr %device_id, align 8
  %device_id4 = getelementptr inbounds nuw i8, ptr %call.i16, i64 210
  store i16 %0, ptr %device_id4, align 2
  %revision = getelementptr inbounds nuw i8, ptr %data, i64 10
  %1 = load i8, ptr %revision, align 2
  %revision5 = getelementptr inbounds nuw i8, ptr %call.i16, i64 212
  store i8 %1, ptr %revision5, align 4
  %phy_id2 = getelementptr inbounds nuw i8, ptr %data, i64 12
  %2 = load i16, ptr %phy_id2, align 4
  %phy_id26 = getelementptr inbounds nuw i8, ptr %call.i17, i64 232
  store i16 %2, ptr %phy_id26, align 8
  %class_id = getelementptr inbounds nuw i8, ptr %call.i16, i64 214
  store i16 512, ptr %class_id, align 2
  %hold = getelementptr inbounds nuw i8, ptr %call.i15, i64 120
  store ptr @e1000_reset_hold, ptr %hold, align 8
  %categories = getelementptr inbounds nuw i8, ptr %call.i, i64 96
  %3 = load i64, ptr %categories, align 8
  %or.i = or i64 %3, 8
  store i64 %or.i, ptr %categories, align 8
  %desc = getelementptr inbounds nuw i8, ptr %call.i, i64 112
  store ptr @.str.12, ptr %desc, align 8
  %vmsd = getelementptr inbounds nuw i8, ptr %call.i, i64 160
  store ptr @vmstate_e1000, ptr %vmsd, align 8
  tail call void @device_class_set_props(ptr noundef %call.i, ptr noundef nonnull @e1000_properties) #13
  ret void
}